; Function Attrs: null_pointer_is_valid sspstrong uwtable
define internal i32 @dissect_dscreq(ptr noundef %0, ptr noundef %1, ptr noundef %2, ptr readnone captures(none) %3) #0 {
  %5 = alloca i32, align 4
  call void @llvm.lifetime.start.p0(i64 4, ptr nonnull %5) #6
  %6 = load i32, ptr @proto_docsis_dscreq, align 4
  %7 = tail call ptr @proto_tree_add_item(ptr noundef %2, i32 noundef %6, ptr noundef %0, i32 noundef 0, i32 noundef -1, i32 noundef 0)
  %8 = load i32, ptr @ett_docsis_dscreq, align 4
  %9 = tail call ptr @proto_item_add_subtree(ptr noundef %7, i32 noundef %8)
  %10 = load i32, ptr @hf_docsis_mgt_tranid, align 4
  %11 = call ptr @proto_tree_add_item_ret_uint(ptr noundef %9, i32 noundef %10, ptr noundef %0, i32 noundef 0, i32 noundef 2, i32 noundef 0, ptr noundef nonnull %5)
  %12 = getelementptr inbounds nuw i8, ptr %1, i64 8
  %13 = load ptr, ptr %12, align 8
  %14 = load i32, ptr %5, align 4
  call void (ptr, i32, ptr, ...) @col_add_fstr(ptr noundef %13, i32 noundef 25, ptr noundef nonnull @.str.2180, i32 noundef %14)
  %15 = call ptr @tvb_new_subset_remaining(ptr noundef %0, i32 noundef 2)
  %16 = load ptr, ptr @docsis_tlv_handle, align 8
  %17 = call i32 @call_dissector(ptr noundef %16, ptr noundef %15, ptr noundef %1, ptr noundef %9)
  %18 = call i32 @tvb_captured_length(ptr noundef %0)
  call void @llvm.lifetime.end.p0(i64 4, ptr nonnull %5) #6
  ret i32 %18
}